(lp0
ccopy_reg
_reconstructor
p1
(c__main__
OneTask
p2
c__builtin__
object
p3
Ntp4
Rp5
(dp6
S'status'
p7
S'waiting'
p8
sS'prevpid'
p9
S'root'
p10
sS'pid'
p11
I3168
sS'subprogres'
p12
I0
sS'filename'
p13
VKPI Reports\u005cDraft\u005cMobile\u005cHR\u005c2015_02\u005cRA_HR_MOB_prepaid_2015_02Copy.xlsm
p14
sS'amount'
p15
I1
sS'stime'
p16
cdatetime
datetime
p17
(S'\x07\xdf\x02\x12\x08-\x00\x00\x00\x00'
p18
tp19
Rp20
sS'subtotal'
p21
I0
sba.